target datalayout = "e-m:e-p270:32:32-p271:32:32-p272:64:64-i64:64-i128:128-f80:128-n8:16:32:64-S128"
target triple = "x86_64-pc-linux-gnu"

%struct.TableFunc = type { i32, i32, ptr, ptr, ptr, ptr, ptr, ptr, ptr, ptr, ptr, ptr, ptr, ptr, ptr, ptr, i32, i32 }

; Function Attrs: nounwind uwtable
define internal zeroext i1 @_equalTableFunc(ptr noundef %0, ptr noundef %1) #0 {
  %3 = alloca i1, align 1
  %4 = alloca ptr, align 8
  %5 = alloca ptr, align 8
  store ptr %0, ptr %4, align 8
  store ptr %1, ptr %5, align 8
  br label %6

6:                                                ; preds = %2
  %7 = load ptr, ptr %4, align 8
  %8 = getelementptr inbounds nuw %struct.TableFunc, ptr %7, i32 0, i32 1
  %9 = load i32, ptr %8, align 4
  %10 = load ptr, ptr %5, align 8
  %11 = getelementptr inbounds nuw %struct.TableFunc, ptr %10, i32 0, i32 1
  %12 = load i32, ptr %11, align 4
  %13 = icmp ne i32 %9, %12
  br i1 %13, label %14, label %15

14:                                               ; preds = %6
  store i1 false, ptr %3, align 1
  br label %182

15:                                               ; preds = %6
  br label %16

16:                                               ; preds = %15
  br label %17

17:                                               ; preds = %16
  %18 = load ptr, ptr %4, align 8
  %19 = getelementptr inbounds nuw %struct.TableFunc, ptr %18, i32 0, i32 2
  %20 = load ptr, ptr %19, align 8
  %21 = load ptr, ptr %5, align 8
  %22 = getelementptr inbounds nuw %struct.TableFunc, ptr %21, i32 0, i32 2
  %23 = load ptr, ptr %22, align 8
  %24 = call zeroext i1 @equal(ptr noundef %20, ptr noundef %23)
  br i1 %24, label %26, label %25

25:                                               ; preds = %17
  store i1 false, ptr %3, align 1
  br label %182

26:                                               ; preds = %17
  br label %27

27:                                               ; preds = %26
  br label %28

28:                                               ; preds = %27
  %29 = load ptr, ptr %4, align 8
  %30 = getelementptr inbounds nuw %struct.TableFunc, ptr %29, i32 0, i32 3
  %31 = load ptr, ptr %30, align 8
  %32 = load ptr, ptr %5, align 8
  %33 = getelementptr inbounds nuw %struct.TableFunc, ptr %32, i32 0, i32 3
  %34 = load ptr, ptr %33, align 8
  %35 = call zeroext i1 @equal(ptr noundef %31, ptr noundef %34)
  br i1 %35, label %37, label %36

36:                                               ; preds = %28
  store i1 false, ptr %3, align 1
  br label %182

37:                                               ; preds = %28
  br label %38

38:                                               ; preds = %37
  br label %39

39:                                               ; preds = %38
  %40 = load ptr, ptr %4, align 8
  %41 = getelementptr inbounds nuw %struct.TableFunc, ptr %40, i32 0, i32 4
  %42 = load ptr, ptr %41, align 8
  %43 = load ptr, ptr %5, align 8
  %44 = getelementptr inbounds nuw %struct.TableFunc, ptr %43, i32 0, i32 4
  %45 = load ptr, ptr %44, align 8
  %46 = call zeroext i1 @equal(ptr noundef %42, ptr noundef %45)
  br i1 %46, label %48, label %47

47:                                               ; preds = %39
  store i1 false, ptr %3, align 1
  br label %182

48:                                               ; preds = %39
  br label %49

49:                                               ; preds = %48
  br label %50

50:                                               ; preds = %49
  %51 = load ptr, ptr %4, align 8
  %52 = getelementptr inbounds nuw %struct.TableFunc, ptr %51, i32 0, i32 5
  %53 = load ptr, ptr %52, align 8
  %54 = load ptr, ptr %5, align 8
  %55 = getelementptr inbounds nuw %struct.TableFunc, ptr %54, i32 0, i32 5
  %56 = load ptr, ptr %55, align 8
  %57 = call zeroext i1 @equal(ptr noundef %53, ptr noundef %56)
  br i1 %57, label %59, label %58

58:                                               ; preds = %50
  store i1 false, ptr %3, align 1
  br label %182

59:                                               ; preds = %50
  br label %60

60:                                               ; preds = %59
  br label %61

61:                                               ; preds = %60
  %62 = load ptr, ptr %4, align 8
  %63 = getelementptr inbounds nuw %struct.TableFunc, ptr %62, i32 0, i32 6
  %64 = load ptr, ptr %63, align 8
  %65 = load ptr, ptr %5, align 8
  %66 = getelementptr inbounds nuw %struct.TableFunc, ptr %65, i32 0, i32 6
  %67 = load ptr, ptr %66, align 8
  %68 = call zeroext i1 @equal(ptr noundef %64, ptr noundef %67)
  br i1 %68, label %70, label %69

69:                                               ; preds = %61
  store i1 false, ptr %3, align 1
  br label %182

70:                                               ; preds = %61
  br label %71

71:                                               ; preds = %70
  br label %72

72:                                               ; preds = %71
  %73 = load ptr, ptr %4, align 8
  %74 = getelementptr inbounds nuw %struct.TableFunc, ptr %73, i32 0, i32 7
  %75 = load ptr, ptr %74, align 8
  %76 = load ptr, ptr %5, align 8
  %77 = getelementptr inbounds nuw %struct.TableFunc, ptr %76, i32 0, i32 7
  %78 = load ptr, ptr %77, align 8
  %79 = call zeroext i1 @equal(ptr noundef %75, ptr noundef %78)
  br i1 %79, label %81, label %80

80:                                               ; preds = %72
  store i1 false, ptr %3, align 1
  br label %182

81:                                               ; preds = %72
  br label %82

82:                                               ; preds = %81
  br label %83

83:                                               ; preds = %82
  %84 = load ptr, ptr %4, align 8
  %85 = getelementptr inbounds nuw %struct.TableFunc, ptr %84, i32 0, i32 8
  %86 = load ptr, ptr %85, align 8
  %87 = load ptr, ptr %5, align 8
  %88 = getelementptr inbounds nuw %struct.TableFunc, ptr %87, i32 0, i32 8
  %89 = load ptr, ptr %88, align 8
  %90 = call zeroext i1 @equal(ptr noundef %86, ptr noundef %89)
  br i1 %90, label %92, label %91

91:                                               ; preds = %83
  store i1 false, ptr %3, align 1
  br label %182

92:                                               ; preds = %83
  br label %93

93:                                               ; preds = %92
  br label %94

94:                                               ; preds = %93
  %95 = load ptr, ptr %4, align 8
  %96 = getelementptr inbounds nuw %struct.TableFunc, ptr %95, i32 0, i32 9
  %97 = load ptr, ptr %96, align 8
  %98 = load ptr, ptr %5, align 8
  %99 = getelementptr inbounds nuw %struct.TableFunc, ptr %98, i32 0, i32 9
  %100 = load ptr, ptr %99, align 8
  %101 = call zeroext i1 @equal(ptr noundef %97, ptr noundef %100)
  br i1 %101, label %103, label %102

102:                                              ; preds = %94
  store i1 false, ptr %3, align 1
  br label %182

103:                                              ; preds = %94
  br label %104

104:                                              ; preds = %103
  br label %105

105:                                              ; preds = %104
  %106 = load ptr, ptr %4, align 8
  %107 = getelementptr inbounds nuw %struct.TableFunc, ptr %106, i32 0, i32 10
  %108 = load ptr, ptr %107, align 8
  %109 = load ptr, ptr %5, align 8
  %110 = getelementptr inbounds nuw %struct.TableFunc, ptr %109, i32 0, i32 10
  %111 = load ptr, ptr %110, align 8
  %112 = call zeroext i1 @equal(ptr noundef %108, ptr noundef %111)
  br i1 %112, label %114, label %113

113:                                              ; preds = %105
  store i1 false, ptr %3, align 1
  br label %182

114:                                              ; preds = %105
  br label %115

115:                                              ; preds = %114
  br label %116

116:                                              ; preds = %115
  %117 = load ptr, ptr %4, align 8
  %118 = getelementptr inbounds nuw %struct.TableFunc, ptr %117, i32 0, i32 11
  %119 = load ptr, ptr %118, align 8
  %120 = load ptr, ptr %5, align 8
  %121 = getelementptr inbounds nuw %struct.TableFunc, ptr %120, i32 0, i32 11
  %122 = load ptr, ptr %121, align 8
  %123 = call zeroext i1 @equal(ptr noundef %119, ptr noundef %122)
  br i1 %123, label %125, label %124

124:                                              ; preds = %116
  store i1 false, ptr %3, align 1
  br label %182

125:                                              ; preds = %116
  br label %126

126:                                              ; preds = %125
  br label %127

127:                                              ; preds = %126
  %128 = load ptr, ptr %4, align 8
  %129 = getelementptr inbounds nuw %struct.TableFunc, ptr %128, i32 0, i32 12
  %130 = load ptr, ptr %129, align 8
  %131 = load ptr, ptr %5, align 8
  %132 = getelementptr inbounds nuw %struct.TableFunc, ptr %131, i32 0, i32 12
  %133 = load ptr, ptr %132, align 8
  %134 = call zeroext i1 @equal(ptr noundef %130, ptr noundef %133)
  br i1 %134, label %136, label %135

135:                                              ; preds = %127
  store i1 false, ptr %3, align 1
  br label %182

136:                                              ; preds = %127
  br label %137

137:                                              ; preds = %136
  br label %138

138:                                              ; preds = %137
  %139 = load ptr, ptr %4, align 8
  %140 = getelementptr inbounds nuw %struct.TableFunc, ptr %139, i32 0, i32 13
  %141 = load ptr, ptr %140, align 8
  %142 = load ptr, ptr %5, align 8
  %143 = getelementptr inbounds nuw %struct.TableFunc, ptr %142, i32 0, i32 13
  %144 = load ptr, ptr %143, align 8
  %145 = call zeroext i1 @equal(ptr noundef %141, ptr noundef %144)
  br i1 %145, label %147, label %146

146:                                              ; preds = %138
  store i1 false, ptr %3, align 1
  br label %182

147:                                              ; preds = %138
  br label %148

148:                                              ; preds = %147
  br label %149

149:                                              ; preds = %148
  %150 = load ptr, ptr %4, align 8
  %151 = getelementptr inbounds nuw %struct.TableFunc, ptr %150, i32 0, i32 14
  %152 = load ptr, ptr %151, align 8
  %153 = load ptr, ptr %5, align 8
  %154 = getelementptr inbounds nuw %struct.TableFunc, ptr %153, i32 0, i32 14
  %155 = load ptr, ptr %154, align 8
  %156 = call zeroext i1 @bms_equal(ptr noundef %152, ptr noundef %155)
  br i1 %156, label %158, label %157

157:                                              ; preds = %149
  store i1 false, ptr %3, align 1
  br label %182

158:                                              ; preds = %149
  br label %159

159:                                              ; preds = %158
  br label %160

160:                                              ; preds = %159
  %161 = load ptr, ptr %4, align 8
  %162 = getelementptr inbounds nuw %struct.TableFunc, ptr %161, i32 0, i32 15
  %163 = load ptr, ptr %162, align 8
  %164 = load ptr, ptr %5, align 8
  %165 = getelementptr inbounds nuw %struct.TableFunc, ptr %164, i32 0, i32 15
  %166 = load ptr, ptr %165, align 8
  %167 = call zeroext i1 @equal(ptr noundef %163, ptr noundef %166)
  br i1 %167, label %169, label %168

168:                                              ; preds = %160
  store i1 false, ptr %3, align 1
  br label %182

169:                                              ; preds = %160
  br label %170

170:                                              ; preds = %169
  br label %171

171:                                              ; preds = %170
  %172 = load ptr, ptr %4, align 8
  %173 = getelementptr inbounds nuw %struct.TableFunc, ptr %172, i32 0, i32 16
  %174 = load i32, ptr %173, align 8
  %175 = load ptr, ptr %5, align 8
  %176 = getelementptr inbounds nuw %struct.TableFunc, ptr %175, i32 0, i32 16
  %177 = load i32, ptr %176, align 8
  %178 = icmp ne i32 %174, %177
  br i1 %178, label %179, label %180

179:                                              ; preds = %171
  store i1 false, ptr %3, align 1
  br label %182

180:                                              ; preds = %171
  br label %181

181:                                              ; preds = %180
  store i1 true, ptr %3, align 1
  br label %182

182:                                              ; preds = %181, %179, %168, %157, %146, %135, %124, %113, %102, %91, %80, %69, %58, %47, %36, %25, %14
  %183 = load i1, ptr %3, align 1
  ret i1 %183
}