; Function Attrs: nounwind uwtable
define internal fastcc zeroext i1 @_equalTableFunc(ptr noundef nonnull readonly captures(none) %0, ptr noundef nonnull readonly captures(none) %1) unnamed_addr #0 {
  %3 = getelementptr inbounds nuw i8, ptr %0, i64 4
  %4 = load i32, ptr %3, align 4
  %5 = getelementptr inbounds nuw i8, ptr %1, i64 4
  %6 = load i32, ptr %5, align 4
  %.not = icmp eq i32 %4, %6
  br i1 %.not, label %7, label %96

7:                                                ; preds = %2
  %8 = getelementptr inbounds nuw i8, ptr %0, i64 8
  %9 = load ptr, ptr %8, align 8
  %10 = getelementptr inbounds nuw i8, ptr %1, i64 8
  %11 = load ptr, ptr %10, align 8
  %12 = tail call zeroext i1 @equal(ptr noundef %9, ptr noundef %11)
  br i1 %12, label %13, label %96

13:                                               ; preds = %7
  %14 = getelementptr inbounds nuw i8, ptr %0, i64 16
  %15 = load ptr, ptr %14, align 8
  %16 = getelementptr inbounds nuw i8, ptr %1, i64 16
  %17 = load ptr, ptr %16, align 8
  %18 = tail call zeroext i1 @equal(ptr noundef %15, ptr noundef %17)
  br i1 %18, label %19, label %96

19:                                               ; preds = %13
  %20 = getelementptr inbounds nuw i8, ptr %0, i64 24
  %21 = load ptr, ptr %20, align 8
  %22 = getelementptr inbounds nuw i8, ptr %1, i64 24
  %23 = load ptr, ptr %22, align 8
  %24 = tail call zeroext i1 @equal(ptr noundef %21, ptr noundef %23)
  br i1 %24, label %25, label %96

25:                                               ; preds = %19
  %26 = getelementptr inbounds nuw i8, ptr %0, i64 32
  %27 = load ptr, ptr %26, align 8
  %28 = getelementptr inbounds nuw i8, ptr %1, i64 32
  %29 = load ptr, ptr %28, align 8
  %30 = tail call zeroext i1 @equal(ptr noundef %27, ptr noundef %29)
  br i1 %30, label %31, label %96

31:                                               ; preds = %25
  %32 = getelementptr inbounds nuw i8, ptr %0, i64 40
  %33 = load ptr, ptr %32, align 8
  %34 = getelementptr inbounds nuw i8, ptr %1, i64 40
  %35 = load ptr, ptr %34, align 8
  %36 = tail call zeroext i1 @equal(ptr noundef %33, ptr noundef %35)
  br i1 %36, label %37, label %96

37:                                               ; preds = %31
  %38 = getelementptr inbounds nuw i8, ptr %0, i64 48
  %39 = load ptr, ptr %38, align 8
  %40 = getelementptr inbounds nuw i8, ptr %1, i64 48
  %41 = load ptr, ptr %40, align 8
  %42 = tail call zeroext i1 @equal(ptr noundef %39, ptr noundef %41)
  br i1 %42, label %43, label %96

43:                                               ; preds = %37
  %44 = getelementptr inbounds nuw i8, ptr %0, i64 56
  %45 = load ptr, ptr %44, align 8
  %46 = getelementptr inbounds nuw i8, ptr %1, i64 56
  %47 = load ptr, ptr %46, align 8
  %48 = tail call zeroext i1 @equal(ptr noundef %45, ptr noundef %47)
  br i1 %48, label %49, label %96

49:                                               ; preds = %43
  %50 = getelementptr inbounds nuw i8, ptr %0, i64 64
  %51 = load ptr, ptr %50, align 8
  %52 = getelementptr inbounds nuw i8, ptr %1, i64 64
  %53 = load ptr, ptr %52, align 8
  %54 = tail call zeroext i1 @equal(ptr noundef %51, ptr noundef %53)
  br i1 %54, label %55, label %96

55:                                               ; preds = %49
  %56 = getelementptr inbounds nuw i8, ptr %0, i64 72
  %57 = load ptr, ptr %56, align 8
  %58 = getelementptr inbounds nuw i8, ptr %1, i64 72
  %59 = load ptr, ptr %58, align 8
  %60 = tail call zeroext i1 @equal(ptr noundef %57, ptr noundef %59)
  br i1 %60, label %61, label %96

61:                                               ; preds = %55
  %62 = getelementptr inbounds nuw i8, ptr %0, i64 80
  %63 = load ptr, ptr %62, align 8
  %64 = getelementptr inbounds nuw i8, ptr %1, i64 80
  %65 = load ptr, ptr %64, align 8
  %66 = tail call zeroext i1 @equal(ptr noundef %63, ptr noundef %65)
  br i1 %66, label %67, label %96

67:                                               ; preds = %61
  %68 = getelementptr inbounds nuw i8, ptr %0, i64 88
  %69 = load ptr, ptr %68, align 8
  %70 = getelementptr inbounds nuw i8, ptr %1, i64 88
  %71 = load ptr, ptr %70, align 8
  %72 = tail call zeroext i1 @equal(ptr noundef %69, ptr noundef %71)
  br i1 %72, label %73, label %96

73:                                               ; preds = %67
  %74 = getelementptr inbounds nuw i8, ptr %0, i64 96
  %75 = load ptr, ptr %74, align 8
  %76 = getelementptr inbounds nuw i8, ptr %1, i64 96
  %77 = load ptr, ptr %76, align 8
  %78 = tail call zeroext i1 @equal(ptr noundef %75, ptr noundef %77)
  br i1 %78, label %79, label %96

79:                                               ; preds = %73
  %80 = getelementptr inbounds nuw i8, ptr %0, i64 104
  %81 = load ptr, ptr %80, align 8
  %82 = getelementptr inbounds nuw i8, ptr %1, i64 104
  %83 = load ptr, ptr %82, align 8
  %84 = tail call zeroext i1 @bms_equal(ptr noundef %81, ptr noundef %83) #9
  br i1 %84, label %85, label %96

85:                                               ; preds = %79
  %86 = getelementptr inbounds nuw i8, ptr %0, i64 112
  %87 = load ptr, ptr %86, align 8
  %88 = getelementptr inbounds nuw i8, ptr %1, i64 112
  %89 = load ptr, ptr %88, align 8
  %90 = tail call zeroext i1 @equal(ptr noundef %87, ptr noundef %89)
  br i1 %90, label %91, label %96

91:                                               ; preds = %85
  %92 = getelementptr inbounds nuw i8, ptr %0, i64 120
  %93 = load i32, ptr %92, align 8
  %94 = getelementptr inbounds nuw i8, ptr %1, i64 120
  %95 = load i32, ptr %94, align 8
  %.not33 = icmp eq i32 %93, %95
  br label %96

96:                                               ; preds = %91, %85, %79, %73, %67, %61, %55, %49, %43, %37, %31, %25, %19, %13, %7, %2
  %.0 = phi i1 [ false, %2 ], [ false, %7 ], [ false, %13 ], [ false, %19 ], [ false, %25 ], [ false, %31 ], [ false, %37 ], [ false, %43 ], [ false, %49 ], [ false, %55 ], [ false, %61 ], [ false, %67 ], [ false, %73 ], [ false, %79 ], [ false, %85 ], [ %.not33, %91 ]
  ret i1 %.0
}